target datalayout = "e-m:e-p270:32:32-p271:32:32-p272:64:64-i64:64-i128:128-f80:128-n8:16:32:64-S128"
target triple = "x86_64-pc-linux-gnu"

%struct._zend_executor_globals = type { %struct._zval_struct, %struct._zval_struct, [32 x ptr], ptr, ptr, %struct._zend_array, %struct._zend_array, ptr, i32, i32, ptr, ptr, ptr, ptr, ptr, ptr, i64, ptr, ptr, i32, i32, i64, i32, i32, i32, i8, i8, %struct.zend_atomic_bool_s, %struct.zend_atomic_bool_s, ptr, i64, ptr, ptr, %struct._zend_array, %struct._zend_array, i32, i8, %struct._zval_struct, %struct._zval_struct, %struct._zend_stack, %struct._zend_stack, %struct._zend_stack, ptr, i32, i32, i64, ptr, ptr, ptr, %struct._zend_objects_store, ptr, ptr, ptr, [3 x %struct._zend_op], ptr, i8, i8, i64, i32, i32, ptr, [16 x %struct._HashTableIterator], ptr, %union._zend_function, %struct._zend_op, %struct._zend_array, i64, %struct.zend_get_gc_buffer, ptr, ptr, ptr, i64, i8, i32, ptr, ptr, i64, %struct._zend_call_stack, i64, i64, [6 x ptr] }
%struct.zend_atomic_bool_s = type { i8 }
%struct._zval_struct = type { %union._zend_value, %union.anon, %union.anon.2 }
%union._zend_value = type { i64 }
%union.anon = type { i32 }
%union.anon.2 = type { i32 }
%struct._zend_stack = type { i32, i32, i32, ptr }
%struct._zend_objects_store = type { ptr, i32, i32, i32 }
%struct._HashTableIterator = type { ptr, i32, i32 }
%union._zend_function = type { %struct._zend_op_array }
%struct._zend_op_array = type { i8, [3 x i8], i32, ptr, ptr, ptr, i32, i32, ptr, ptr, ptr, ptr, i32, i32, i32, i32, ptr, ptr, ptr, ptr, ptr, i32, i32, ptr, ptr, ptr, i32, i32, i32, i32, ptr, ptr, [6 x ptr] }
%struct._zend_op = type { ptr, %union._znode_op, %union._znode_op, %union._znode_op, i32, i32, i8, i8, i8, i8 }
%union._znode_op = type { i32 }
%struct._zend_array = type { %struct._zend_refcounted_h, %union.anon.4, i32, %union.anon.6, i32, i32, i32, i32, i64, ptr }
%struct._zend_refcounted_h = type { i32, %union.anon.3 }
%union.anon.3 = type { i32 }
%union.anon.4 = type { i32 }
%union.anon.6 = type { ptr }
%struct.zend_get_gc_buffer = type { ptr, ptr, ptr }
%struct._zend_call_stack = type { ptr, i64 }
%struct._php_core_globals = type { i64, i8, i8, i8, i8, i8, i8, i8, i8, ptr, ptr, i64, i64, i64, ptr, ptr, ptr, ptr, ptr, i8, ptr, ptr, ptr, ptr, i64, ptr, ptr, ptr, ptr, ptr, ptr, ptr, %struct._arg_separators, ptr, %struct._zend_array, i16, i8, i8, %struct._zend_llist, [6 x %struct._zval_struct], i8, i8, i8, i8, i8, ptr, ptr, i64, [8 x i8], i8, i8, i8, i8, i8, i8, i32, i32, ptr, ptr, ptr, ptr, i64, i64, ptr, i64, ptr, ptr, i8, i8, i8, i8, i8, i8, i64, ptr, i64, i64 }
%struct._arg_separators = type { ptr, ptr }
%struct._zend_llist = type { ptr, ptr, i64, i64, ptr, i8, ptr }
%struct.anon.0 = type { i8, i8, %union.anon.1 }
%union.anon.1 = type { i16 }

@php_import_environment_variables = global ptr @_php_import_environment_variables, align 8
@executor_globals = external global %struct._zend_executor_globals, align 8
@core_globals = external global %struct._php_core_globals, align 8

; Function Attrs: nounwind uwtable
define internal zeroext i1 @php_auto_globals_create_env(ptr noundef %0) #0 {
  %2 = alloca ptr, align 8
  %3 = alloca ptr, align 8
  %4 = alloca ptr, align 8
  %5 = alloca ptr, align 8
  %6 = alloca ptr, align 8
  %7 = alloca ptr, align 8
  %8 = alloca ptr, align 8
  %9 = alloca ptr, align 8
  store ptr %0, ptr %7, align 8
  store ptr getelementptr inbounds (%struct._php_core_globals, ptr @core_globals, i32 0, i32 39, i64 4), ptr %6, align 8
  %10 = load ptr, ptr %6, align 8
  %11 = getelementptr inbounds %struct._zval_struct, ptr %10, i32 0, i32 1
  %12 = getelementptr inbounds %struct.anon.0, ptr %11, i32 0, i32 1
  %13 = load i8, ptr %12, align 1
  %14 = zext i8 %13 to i32
  %15 = icmp ne i32 %14, 0
  br i1 %15, label %16, label %36

16:                                               ; preds = %1
  %17 = load ptr, ptr %6, align 8
  store ptr %17, ptr %4, align 8
  %18 = load ptr, ptr %4, align 8
  %19 = getelementptr inbounds %struct._zval_struct, ptr %18, i32 0, i32 1
  %20 = getelementptr inbounds %struct.anon.0, ptr %19, i32 0, i32 1
  %21 = load i8, ptr %20, align 1
  %22 = zext i8 %21 to i32
  %23 = icmp ne i32 %22, 0
  call void @llvm.assume(i1 %23)
  %24 = load ptr, ptr %4, align 8
  %25 = load ptr, ptr %24, align 8
  store ptr %25, ptr %3, align 8
  %26 = load ptr, ptr %3, align 8
  %27 = load i32, ptr %26, align 4
  %28 = icmp ugt i32 %27, 0
  call void @llvm.assume(i1 %28)
  %29 = load ptr, ptr %3, align 8
  %30 = load i32, ptr %29, align 4
  %31 = add i32 %30, -1
  store i32 %31, ptr %29, align 4
  %32 = icmp ne i32 %31, 0
  br i1 %32, label %36, label %33

33:                                               ; preds = %16
  %34 = load ptr, ptr %6, align 8
  %35 = load ptr, ptr %34, align 8
  call void @rc_dtor_func(ptr noundef %35) #13
  br label %36

36:                                               ; preds = %33, %16, %1
  br label %37

37:                                               ; preds = %36
  %38 = call ptr @_zend_new_array_0()
  store ptr %38, ptr %8, align 8
  store ptr getelementptr inbounds (%struct._php_core_globals, ptr @core_globals, i32 0, i32 39, i64 4), ptr %9, align 8
  %39 = load ptr, ptr %8, align 8
  %40 = load ptr, ptr %9, align 8
  %41 = getelementptr inbounds %struct._zval_struct, ptr %40, i32 0, i32 0
  store ptr %39, ptr %41, align 8
  %42 = load ptr, ptr %9, align 8
  %43 = getelementptr inbounds %struct._zval_struct, ptr %42, i32 0, i32 1
  store i32 775, ptr %43, align 8
  br label %44

44:                                               ; preds = %37
  %45 = load ptr, ptr getelementptr inbounds (%struct._php_core_globals, ptr @core_globals, i32 0, i32 33), align 8
  %46 = icmp ne ptr %45, null
  br i1 %46, label %47, label %57

47:                                               ; preds = %44
  %48 = load ptr, ptr getelementptr inbounds (%struct._php_core_globals, ptr @core_globals, i32 0, i32 33), align 8
  %49 = call ptr @strchr(ptr noundef %48, i32 noundef 69) #11
  %50 = icmp ne ptr %49, null
  br i1 %50, label %55, label %51

51:                                               ; preds = %47
  %52 = load ptr, ptr getelementptr inbounds (%struct._php_core_globals, ptr @core_globals, i32 0, i32 33), align 8
  %53 = call ptr @strchr(ptr noundef %52, i32 noundef 101) #11
  %54 = icmp ne ptr %53, null
  br i1 %54, label %55, label %57

55:                                               ; preds = %51, %47
  %56 = load ptr, ptr @php_import_environment_variables, align 8
  call void %56(ptr noundef getelementptr inbounds (%struct._php_core_globals, ptr @core_globals, i32 0, i32 39, i64 4))
  br label %57

57:                                               ; preds = %55, %51, %44
  %58 = load ptr, ptr getelementptr inbounds (%struct._php_core_globals, ptr @core_globals, i32 0, i32 39, i64 4), align 8
  call void @check_http_proxy(ptr noundef %58)
  %59 = load ptr, ptr %7, align 8
  %60 = call ptr @zend_hash_update(ptr noundef getelementptr inbounds (%struct._zend_executor_globals, ptr @executor_globals, i32 0, i32 5), ptr noundef %59, ptr noundef getelementptr inbounds (%struct._php_core_globals, ptr @core_globals, i32 0, i32 39, i64 4))
  store ptr getelementptr inbounds (%struct._php_core_globals, ptr @core_globals, i32 0, i32 39, i64 4), ptr %5, align 8
  %61 = load ptr, ptr %5, align 8
  %62 = getelementptr inbounds %struct._zval_struct, ptr %61, i32 0, i32 1
  %63 = getelementptr inbounds %struct.anon.0, ptr %62, i32 0, i32 1
  %64 = load i8, ptr %63, align 1
  %65 = zext i8 %64 to i32
  %66 = icmp ne i32 %65, 0
  call void @llvm.assume(i1 %66)
  %67 = load ptr, ptr %5, align 8
  %68 = load ptr, ptr %67, align 8
  store ptr %68, ptr %2, align 8
  %69 = load ptr, ptr %2, align 8
  %70 = load i32, ptr %69, align 4
  %71 = add i32 %70, 1
  store i32 %71, ptr %69, align 4
  ret i1 false
}