; Function Attrs: nounwind uwtable
define internal noundef zeroext i1 @php_auto_globals_create_env(ptr noundef %0) #0 {
  %2 = load i8, ptr getelementptr inbounds (%struct.anon.0, ptr getelementptr inbounds (%struct._php_core_globals, ptr @core_globals, i64 0, i32 39, i64 4, i32 1), i64 0, i32 1), align 1
  %.not = icmp eq i8 %2, 0
  br i1 %.not, label %10, label %3

3:                                                ; preds = %1
  %4 = load ptr, ptr getelementptr inbounds (%struct._php_core_globals, ptr @core_globals, i64 0, i32 39, i64 4), align 8
  %5 = load i32, ptr %4, align 4
  %6 = icmp ne i32 %5, 0
  tail call void @llvm.assume(i1 %6)
  %7 = add i32 %5, -1
  store i32 %7, ptr %4, align 4
  %.not14 = icmp eq i32 %7, 0
  br i1 %.not14, label %8, label %10

8:                                                ; preds = %3
  %9 = load ptr, ptr getelementptr inbounds (%struct._php_core_globals, ptr @core_globals, i64 0, i32 39, i64 4), align 8
  tail call void @rc_dtor_func(ptr noundef %9) #17
  br label %10

10:                                               ; preds = %1, %3, %8
  %11 = tail call ptr @_zend_new_array_0() #17
  store ptr %11, ptr getelementptr inbounds (%struct._php_core_globals, ptr @core_globals, i64 0, i32 39, i64 4), align 8
  store i32 775, ptr getelementptr inbounds (%struct._php_core_globals, ptr @core_globals, i64 0, i32 39, i64 4, i32 1), align 8
  %12 = load ptr, ptr getelementptr inbounds (%struct._php_core_globals, ptr @core_globals, i64 0, i32 33), align 8
  %.not15 = icmp eq ptr %12, null
  br i1 %.not15, label %19, label %13

13:                                               ; preds = %10
  %14 = tail call ptr @strchr(ptr noundef nonnull dereferenceable(1) %12, i32 noundef 69) #15
  %.not16 = icmp eq ptr %14, null
  br i1 %.not16, label %15, label %17

15:                                               ; preds = %13
  %16 = tail call ptr @strchr(ptr noundef nonnull dereferenceable(1) %12, i32 noundef 101) #15
  %.not17 = icmp eq ptr %16, null
  br i1 %.not17, label %19, label %17

17:                                               ; preds = %15, %13
  %18 = load ptr, ptr @php_import_environment_variables, align 8
  tail call void %18(ptr noundef nonnull getelementptr inbounds (%struct._php_core_globals, ptr @core_globals, i64 0, i32 39, i64 4)) #17
  %.pre = load ptr, ptr getelementptr inbounds (%struct._php_core_globals, ptr @core_globals, i64 0, i32 39, i64 4), align 8
  br label %19

19:                                               ; preds = %17, %15, %10
  %20 = phi ptr [ %.pre, %17 ], [ %11, %15 ], [ %11, %10 ]
  tail call fastcc void @check_http_proxy(ptr noundef %20)
  %21 = tail call ptr @zend_hash_update(ptr noundef nonnull getelementptr inbounds (%struct._zend_executor_globals, ptr @executor_globals, i64 0, i32 5), ptr noundef %0, ptr noundef nonnull getelementptr inbounds (%struct._php_core_globals, ptr @core_globals, i64 0, i32 39, i64 4)) #17
  %22 = load i8, ptr getelementptr inbounds (%struct.anon.0, ptr getelementptr inbounds (%struct._php_core_globals, ptr @core_globals, i64 0, i32 39, i64 4, i32 1), i64 0, i32 1), align 1
  %23 = icmp ne i8 %22, 0
  tail call void @llvm.assume(i1 %23)
  %24 = load ptr, ptr getelementptr inbounds (%struct._php_core_globals, ptr @core_globals, i64 0, i32 39, i64 4), align 8
  %25 = load i32, ptr %24, align 4
  %26 = add i32 %25, 1
  store i32 %26, ptr %24, align 4
  ret i1 false
}